target datalayout = "e-m:e-p270:32:32-p271:32:32-p272:64:64-i64:64-i128:128-f80:128-n8:16:32:64-S128"
target triple = "x86_64-pc-linux-gnu"

%struct.Tru_Man_t_ = type { i32, i32, i32, i32, ptr, ptr, ptr, [16 x i32], i32 }
%struct.Tru_One_t_ = type { i32, i32, [0 x i64] }
%struct.Vec_Set_t_ = type { i32, i32, i32, i32, i32, i32, ptr }

; Function Attrs: inlinehint nounwind uwtable
define internal i32 @Vec_SetHandShift(ptr noundef %0, i32 noundef %1) #2 {
  %3 = alloca ptr, align 8
  %4 = alloca i32, align 4
  store ptr %0, ptr %3, align 8, !tbaa !37
  store i32 %1, ptr %4, align 4, !tbaa !18
  %5 = load i32, ptr %4, align 4, !tbaa !18
  %6 = load ptr, ptr %3, align 8, !tbaa !37
  %7 = getelementptr inbounds nuw %struct.Vec_Set_t_, ptr %6, i32 0, i32 1
  %8 = load i32, ptr %7, align 4, !tbaa !52
  %9 = and i32 %5, %8
  ret i32 %9
}

; Function Attrs: inlinehint nounwind uwtable
define internal i32 @Vec_SetHandPage(ptr noundef %0, i32 noundef %1) #2 {
  %3 = alloca ptr, align 8
  %4 = alloca i32, align 4
  store ptr %0, ptr %3, align 8, !tbaa !37
  store i32 %1, ptr %4, align 4, !tbaa !18
  %5 = load i32, ptr %4, align 4, !tbaa !18
  %6 = load ptr, ptr %3, align 8, !tbaa !37
  %7 = getelementptr inbounds nuw %struct.Vec_Set_t_, ptr %6, i32 0, i32 0
  %8 = load i32, ptr %7, align 8, !tbaa !44
  %9 = ashr i32 %5, %8
  ret i32 %9
}

; Function Attrs: inlinehint nounwind uwtable
define internal ptr @Vec_SetEntry(ptr noundef %0, i32 noundef %1) #2 {
  %3 = alloca ptr, align 8
  %4 = alloca i32, align 4
  store ptr %0, ptr %3, align 8, !tbaa !37
  store i32 %1, ptr %4, align 4, !tbaa !18
  %5 = load ptr, ptr %3, align 8, !tbaa !37
  %6 = getelementptr inbounds nuw %struct.Vec_Set_t_, ptr %5, i32 0, i32 6
  %7 = load ptr, ptr %6, align 8, !tbaa !42
  %8 = load ptr, ptr %3, align 8, !tbaa !37
  %9 = load i32, ptr %4, align 4, !tbaa !18
  %10 = call i32 @Vec_SetHandPage(ptr noundef %8, i32 noundef %9)
  %11 = sext i32 %10 to i64
  %12 = getelementptr inbounds ptr, ptr %7, i64 %11
  %13 = load ptr, ptr %12, align 8, !tbaa !8
  %14 = load ptr, ptr %3, align 8, !tbaa !37
  %15 = load i32, ptr %4, align 4, !tbaa !18
  %16 = call i32 @Vec_SetHandShift(ptr noundef %14, i32 noundef %15)
  %17 = sext i32 %16 to i64
  %18 = getelementptr inbounds i64, ptr %13, i64 %17
  ret ptr %18
}

; Function Attrs: inlinehint nounwind uwtable
define internal ptr @Tru_ManReadOne(ptr noundef %0, i32 noundef %1) #2 {
  %3 = alloca ptr, align 8
  %4 = alloca i32, align 4
  store ptr %0, ptr %3, align 8, !tbaa !3
  store i32 %1, ptr %4, align 4, !tbaa !18
  %5 = load i32, ptr %4, align 4, !tbaa !18
  %6 = icmp ne i32 %5, 0
  br i1 %6, label %7, label %13

7:                                                ; preds = %2
  %8 = load ptr, ptr %3, align 8, !tbaa !3
  %9 = getelementptr inbounds nuw %struct.Tru_Man_t_, ptr %8, i32 0, i32 5
  %10 = load ptr, ptr %9, align 8, !tbaa !26
  %11 = load i32, ptr %4, align 4, !tbaa !18
  %12 = call ptr @Vec_SetEntry(ptr noundef %10, i32 noundef %11)
  br label %14

13:                                               ; preds = %2
  br label %14

14:                                               ; preds = %13, %7
  %15 = phi ptr [ %12, %7 ], [ null, %13 ]
  ret ptr %15
}

; Function Attrs: nounwind uwtable
define ptr @Tru_ManVar(ptr noundef %0, i32 noundef %1) #0 {
  %3 = alloca ptr, align 8
  %4 = alloca i32, align 4
  store ptr %0, ptr %3, align 8, !tbaa !3
  store i32 %1, ptr %4, align 4, !tbaa !18
  %5 = load ptr, ptr %3, align 8, !tbaa !3
  %6 = load ptr, ptr %3, align 8, !tbaa !3
  %7 = getelementptr inbounds nuw %struct.Tru_Man_t_, ptr %6, i32 0, i32 7
  %8 = load i32, ptr %4, align 4, !tbaa !18
  %9 = sext i32 %8 to i64
  %10 = getelementptr inbounds [16 x i32], ptr %7, i64 0, i64 %9
  %11 = load i32, ptr %10, align 4, !tbaa !18
  %12 = call ptr @Tru_ManReadOne(ptr noundef %5, i32 noundef %11)
  %13 = getelementptr inbounds nuw %struct.Tru_One_t_, ptr %12, i32 0, i32 2
  %14 = getelementptr inbounds [0 x i64], ptr %13, i64 0, i64 0
  ret ptr %14
}