; Function Attrs: mustprogress nofree norecurse nosync nounwind willreturn memory(read, inaccessiblemem: none) uwtable
define nonnull ptr @Tru_ManVar(ptr noundef readonly captures(none) %0, i32 noundef %1) local_unnamed_addr #8 {
  %3 = getelementptr inbounds nuw i8, ptr %0, i64 40
  %4 = sext i32 %1 to i64
  %5 = getelementptr inbounds [16 x i32], ptr %3, i64 0, i64 %4
  %6 = load i32, ptr %5, align 4, !tbaa !16
  %.not.i = icmp eq i32 %6, 0
  br i1 %.not.i, label %Tru_ManReadOne.exit, label %7

7:                                                ; preds = %2
  %8 = getelementptr inbounds nuw i8, ptr %0, i64 24
  %9 = load ptr, ptr %8, align 8, !tbaa !19
  %10 = getelementptr inbounds nuw i8, ptr %9, i64 24
  %11 = load ptr, ptr %10, align 8, !tbaa !20
  %.val.i.i = load i32, ptr %9, align 8, !tbaa !23
  %12 = ashr i32 %6, %.val.i.i
  %13 = sext i32 %12 to i64
  %14 = getelementptr inbounds ptr, ptr %11, i64 %13
  %15 = load ptr, ptr %14, align 8, !tbaa !24
  %16 = getelementptr i8, ptr %9, i64 4
  %.val4.i.i = load i32, ptr %16, align 4, !tbaa !25
  %17 = and i32 %.val4.i.i, %6
  %18 = sext i32 %17 to i64
  %19 = getelementptr inbounds i64, ptr %15, i64 %18
  br label %Tru_ManReadOne.exit

Tru_ManReadOne.exit:                              ; preds = %2, %7
  %20 = phi ptr [ %19, %7 ], [ null, %2 ]
  %21 = getelementptr inbounds nuw i8, ptr %20, i64 8
  ret ptr %21
}